(dp0
I2
(dp1
I2
(dp2
I1
(lp3
I1
aI2
assI3
(dp4
I1
(lp5
I1
aI3
asI2
(lp6
I2
aI3
assI4
(dp7
I1
(lp8
I1
aI4
asI2
(lp9
I3
aI4
assI5
(dp10
I1
(lp11
I2
aI5
asI2
(lp12
I3
aI5
asI3
(lp13
I1
aI2
aI3
aI5
asI4
(lp14
I1
aI2
aI3
aI5
asI5
(lp15
I1
aI2
aI4
aI5
asI6
(lp16
I1
aI3
aI4
aI5
assI6
(dp17
I1
(lp18
I1
aI6
asI2
(lp19
I5
aI6
asI3
(lp20
I1
aI2
aI5
aI6
asI4
(lp21
I1
aI4
aI5
aI6
asI5
(lp22
I1
aI3
aI4
aI6
asI6
(lp23
I2
aI3
aI5
aI6
assI7
(dp24
I1
(lp25
I1
aI7
asI2
(lp26
I6
aI7
asI3
(lp27
I3
aI7
asI4
(lp28
I4
aI7
asI5
(lp29
I1
aI2
aI3
aI7
asI6
(lp30
I4
aI5
aI6
aI7
asI7
(lp31
I1
aI2
aI5
aI7
asI8
(lp32
I2
aI5
aI6
aI7
asI9
(lp33
I2
aI3
aI4
aI7
asI10
(lp34
I3
aI4
aI5
aI7
asI11
(lp35
I1
aI3
aI5
aI7
asI12
(lp36
I2
aI4
aI6
aI7
asI13
(lp37
I1
aI3
aI6
aI7
asI14
(lp38
I1
aI4
aI6
aI7
asI15
(lp39
I2
aI3
aI4
aI5
aI6
aI7
asI16
(lp40
I1
aI2
aI3
aI4
aI5
aI7
asI17
(lp41
I1
aI2
aI4
aI5
aI6
aI7
asI18
(lp42
I1
aI2
aI3
aI5
aI6
aI7
assI8
(dp43
I1
(lp44
I1
aI2
aI7
aI8
asI2
(lp45
I1
aI6
aI7
aI8
asI3
(lp46
I1
aI3
aI5
aI8
asI4
(lp47
I3
aI5
aI7
aI8
asI5
(lp48
I2
aI3
aI4
aI8
asI6
(lp49
I4
aI5
aI6
aI8
asI7
(lp50
I2
aI3
aI5
aI8
asI8
(lp51
I3
aI5
aI6
aI8
asI9
(lp52
I2
aI3
aI6
aI8
asI10
(lp53
I2
aI5
aI6
aI8
asI11
(lp54
I2
aI3
aI7
aI8
asI12
(lp55
I1
aI5
aI6
aI8
asI13
(lp56
I1
aI2
aI3
aI4
aI6
aI8
asI14
(lp57
I2
aI4
aI5
aI7
aI8
asI15
(lp58
I1
aI2
aI3
aI6
aI7
aI8
asI16
(lp59
I1
aI2
aI5
aI6
aI7
aI8
assI9
(dp60
I1
(lp61
I4
aI9
asI2
(lp62
I5
aI9
asI3
(lp63
I3
aI4
aI6
aI9
asI4
(lp64
I3
aI5
aI6
aI9
asI5
(lp65
I4
aI5
aI8
aI9
asI6
(lp66
I1
aI4
aI5
aI9
asI7
(lp67
I1
aI4
aI8
aI9
asI8
(lp68
I1
aI5
aI8
aI9
asI9
(lp69
I2
aI3
aI5
aI9
asI10
(lp70
I4
aI6
aI7
aI9
asI11
(lp71
I5
aI6
aI8
aI9
asI12
(lp72
I1
aI3
aI4
aI9
asI13
(lp73
I2
aI7
aI8
aI9
asI14
(lp74
I1
aI2
aI7
aI9
asI15
(lp75
I2
aI4
aI7
aI9
asI16
(lp76
I2
aI5
aI7
aI9
asI17
(lp77
I2
aI4
aI8
aI9
asI18
(lp78
I1
aI5
aI7
aI9
asI19
(lp79
I1
aI2
aI4
aI5
aI6
aI9
asI20
(lp80
I3
aI4
aI5
aI7
aI8
aI9
asI21
(lp81
I1
aI3
aI4
aI6
aI7
aI9
asI22
(lp82
I2
aI3
aI5
aI6
aI8
aI9
asI23
(lp83
I3
aI5
aI6
aI7
aI8
aI9
asI24
(lp84
I1
aI2
aI3
aI4
aI6
aI9
asI25
(lp85
I1
aI5
aI6
aI7
aI8
aI9
asI26
(lp86
I1
aI2
aI3
aI4
aI8
aI9
asI27
(lp87
I1
aI2
aI3
aI7
aI8
aI9
asI28
(lp88
I1
aI2
aI6
aI7
aI8
aI9
asI29
(lp89
I1
aI3
aI5
aI6
aI8
aI9
asI30
(lp90
I1
aI3
aI4
aI6
aI8
aI9
asI31
(lp91
I1
aI2
aI3
aI5
aI6
aI9
asI32
(lp92
I3
aI4
aI6
aI7
aI8
aI9
asI33
(lp93
I2
aI3
aI6
aI7
aI8
aI9
asI34
(lp94
I1
aI2
aI3
aI6
aI7
aI9
asI35
(lp95
I1
aI4
aI5
aI6
aI8
aI9
asI36
(lp96
I1
aI3
aI4
aI5
aI8
aI9
asI37
(lp97
I1
aI3
aI6
aI7
aI8
aI9
asI38
(lp98
I1
aI2
aI3
aI6
aI8
aI9
asI39
(lp99
I2
aI3
aI4
aI5
aI6
aI9
asI40
(lp100
I3
aI4
aI5
aI6
aI7
aI9
asI41
(lp101
I2
aI4
aI6
aI7
aI8
aI9
asI42
(lp102
I1
aI2
aI3
aI5
aI7
aI9
asI43
(lp103
I2
aI3
aI4
aI5
aI7
aI9
asI44
(lp104
I2
aI4
aI5
aI6
aI7
aI9
asI45
(lp105
I1
aI2
aI4
aI5
aI7
aI9
asI46
(lp106
I2
aI4
aI5
aI6
aI7
aI9
asI47
(lp107
I1
aI3
aI4
aI5
aI6
aI7
aI8
aI9
asI48
(lp108
I1
aI2
aI3
aI4
aI5
aI6
aI8
aI9
assI10
(dp109
I1
(lp110
I3
aI10
asI2
(lp111
I7
aI10
asI3
(lp112
I2
aI3
aI8
aI10
asI4
(lp113
I2
aI7
aI8
aI10
asI5
(lp114
I1
aI3
aI4
aI10
asI6
(lp115
I6
aI7
aI9
aI10
asI7
(lp116
I1
aI5
aI8
aI10
asI8
(lp117
I2
aI5
aI9
aI10
asI9
(lp118
I4
aI5
aI8
aI10
asI10
(lp119
I2
aI5
aI6
aI10
asI11
(lp120
I1
aI4
aI9
aI10
asI12
(lp121
I1
aI6
aI9
aI10
asI13
(lp122
I3
aI4
aI8
aI10
asI14
(lp123
I2
aI6
aI7
aI10
asI15
(lp124
I2
aI3
aI5
aI10
asI16
(lp125
I5
aI7
aI8
aI10
asI17
(lp126
I1
aI2
aI5
aI10
asI18
(lp127
I5
aI8
aI9
aI10
asI19
(lp128
I2
aI4
aI9
aI10
asI20
(lp129
I1
aI6
aI8
aI10
asI21
(lp130
I3
aI7
aI9
aI10
asI22
(lp131
I1
aI3
aI7
aI10
asI23
(lp132
I1
aI2
aI3
aI5
aI6
aI10
asI24
(lp133
I4
aI5
aI7
aI8
aI9
aI10
asI25
(lp134
I2
aI3
aI6
aI8
aI9
aI10
asI26
(lp135
I1
aI2
aI4
aI7
aI8
aI10
asI27
(lp136
I1
aI5
aI6
aI8
aI9
aI10
asI28
(lp137
I1
aI2
aI4
aI5
aI9
aI10
asI29
(lp138
I2
aI5
aI6
aI7
aI8
aI10
asI30
(lp139
I2
aI3
aI4
aI5
aI8
aI10
asI31
(lp140
I2
aI4
aI6
aI8
aI9
aI10
asI32
(lp141
I1
aI2
aI4
aI6
aI8
aI10
asI33
(lp142
I1
aI2
aI3
aI7
aI8
aI10
asI34
(lp143
I2
aI3
aI7
aI8
aI9
aI10
asI35
(lp144
I3
aI4
aI5
aI8
aI9
aI10
asI36
(lp145
I1
aI2
aI5
aI6
aI7
aI10
asI37
(lp146
I1
aI4
aI6
aI7
aI9
aI10
asI38
(lp147
I1
aI3
aI4
aI6
aI9
aI10
asI39
(lp148
I1
aI2
aI6
aI8
aI9
aI10
asI40
(lp149
I1
aI2
aI4
aI8
aI9
aI10
asI41
(lp150
I1
aI4
aI7
aI8
aI9
aI10
asI42
(lp151
I1
aI2
aI3
aI6
aI9
aI10
asI43
(lp152
I1
aI2
aI6
aI7
aI8
aI10
asI44
(lp153
I2
aI3
aI4
aI8
aI9
aI10
asI45
(lp154
I1
aI2
aI4
aI6
aI7
aI10
asI46
(lp155
I3
aI4
aI6
aI8
aI9
aI10
asI47
(lp156
I2
aI4
aI5
aI7
aI9
aI10
asI48
(lp157
I1
aI3
aI5
aI6
aI8
aI10
asI49
(lp158
I3
aI4
aI5
aI6
aI9
aI10
asI50
(lp159
I1
aI4
aI5
aI6
aI7
aI10
asI51
(lp160
I1
aI3
aI4
aI5
aI6
aI7
aI8
aI10
asI52
(lp161
I2
aI3
aI4
aI5
aI6
aI7
aI9
aI10
asI53
(lp162
I3
aI4
aI5
aI6
aI7
aI8
aI9
aI10
asI54
(lp163
I1
aI2
aI3
aI4
aI5
aI6
aI7
aI10
asI55
(lp164
I1
aI2
aI3
aI4
aI5
aI6
aI9
aI10
asI56
(lp165
I1
aI4
aI5
aI6
aI7
aI8
aI9
aI10
asI57
(lp166
I2
aI3
aI4
aI5
aI6
aI8
aI9
aI10
asI58
(lp167
I1
aI2
aI4
aI5
aI6
aI7
aI8
aI10
asI59
(lp168
I1
aI2
aI3
aI4
aI6
aI7
aI9
aI10
asI60
(lp169
I1
aI3
aI4
aI6
aI7
aI8
aI9
aI10
assI11
(dp170
I1
(lp171
I9
aI11
assI12
(dp172
I1
(lp173
I6
aI8
aI11
aI12
assI13
(dp174
I1
(lp175
I9
aI10
aI12
aI13
assI14
(dp176
I1
(lp177
I4
aI8
aI13
aI14
assI15
(dp178
I1
(lp179
I14
aI15
assI16
(dp180
I1
(lp181
I4
aI13
aI15
aI16
assI17
(dp182
I1
(lp183
I14
aI17
assI18
(dp184
I1
(lp185
I11
aI18
assI19
(dp186
I1
(lp187
I14
aI17
aI18
aI19
assI20
(dp188
I1
(lp189
I17
aI20
assI21
(dp190
I1
(lp191
I19
aI21
assI22
(dp192
I1
(lp193
I21
aI22
assI23
(dp194
I1
(lp195
I18
aI23
assI24
(dp196
I1
(lp197
I17
aI22
aI23
aI24
assI25
(dp198
I1
(lp199
I22
aI25
assI26
(dp200
I1
(lp201
I20
aI24
aI25
aI26
assI27
(dp202
I1
(lp203
I22
aI25
aI26
aI27
assI28
(dp204
I1
(lp205
I25
aI28
assI29
(dp206
I1
(lp207
I27
aI29
assI30
(dp208
I1
(lp209
I7
aI28
aI29
aI30
asssI3
(dp210
I2
(dp211
I1
(lp212
I2
aI1
asI2
(lp213
I1
aI1
assI3
(dp214
I1
(lp215
I0
aI1
aI2
asI2
(lp216
I1
aI0
aI2
asI3
(lp217
I1
aI2
aI2
asI4
(lp218
I2
aI1
aI2
assI4
(dp219
I1
(lp220
I0
aI0
aI2
aI1
asI2
(lp221
I0
aI0
aI1
aI1
asI3
(lp222
I2
aI0
aI0
aI1
asI4
(lp223
I2
aI2
aI1
aI1
asI5
(lp224
I2
aI1
aI1
aI1
asI6
(lp225
I1
aI0
aI0
aI1
asI7
(lp226
I1
aI2
aI2
aI1
asI8
(lp227
I1
aI1
aI2
aI1
assI5
(dp228
I1
(lp229
I0
aI0
aI0
aI1
aI2
asI2
(lp230
I0
aI0
aI0
aI1
aI2
asI3
(lp231
I0
aI0
aI1
aI2
aI2
asI4
(lp232
I0
aI2
aI1
aI0
aI2
asI5
(lp233
I0
aI2
aI1
aI1
aI2
asI6
(lp234
I0
aI1
aI2
aI0
aI2
asI7
(lp235
I0
aI1
aI1
aI2
aI2
asI8
(lp236
I2
aI0
aI0
aI1
aI2
asI9
(lp237
I2
aI0
aI2
aI0
aI2
asI10
(lp238
I2
aI0
aI2
aI2
aI2
asI11
(lp239
I2
aI2
aI0
aI2
aI2
asI12
(lp240
I2
aI2
aI2
aI1
aI2
asI13
(lp241
I2
aI2
aI1
aI2
aI2
asI14
(lp242
I2
aI1
aI2
aI2
aI2
asI15
(lp243
I2
aI1
aI1
aI0
aI2
asI16
(lp244
I1
aI0
aI0
aI0
aI2
asI17
(lp245
I1
aI0
aI0
aI2
aI2
asI18
(lp246
I1
aI0
aI1
aI1
aI2
asI19
(lp247
I1
aI2
aI2
aI2
aI2
asI20
(lp248
I1
aI1
aI0
aI1
aI2
asI21
(lp249
I1
aI1
aI2
aI0
aI2
assI6
(dp250
I1
(lp251
I0
aI0
aI0
aI0
aI2
aI1
asI2
(lp252
I0
aI0
aI0
aI0
aI1
aI1
asI3
(lp253
I0
aI0
aI2
aI0
aI2
aI1
asI4
(lp254
I0
aI0
aI1
aI0
aI1
aI1
asI5
(lp255
I0
aI2
aI0
aI1
aI2
aI1
asI6
(lp256
I0
aI2
aI0
aI1
aI1
aI1
asI7
(lp257
I0
aI2
aI2
aI0
aI1
aI1
asI8
(lp258
I0
aI2
aI2
aI2
aI1
aI1
asI9
(lp259
I2
aI1
aI1
aI1
aI0
aI1
asI10
(lp260
I1
aI0
aI0
aI0
aI0
aI1
asI11
(lp261
I1
aI0
aI2
aI1
aI0
aI1
asI12
(lp262
I1
aI0
aI1
aI0
aI0
aI1
asI13
(lp263
I1
aI0
aI1
aI2
aI1
aI1
asI14
(lp264
I1
aI0
aI1
aI1
aI1
aI1
asI15
(lp265
I1
aI2
aI0
aI2
aI2
aI1
asI16
(lp266
I1
aI2
aI0
aI1
aI0
aI1
asI17
(lp267
I1
aI2
aI2
aI1
aI2
aI1
asI18
(lp268
I1
aI2
aI1
aI0
aI1
aI1
asI19
(lp269
I1
aI2
aI1
aI2
aI1
aI1
asI20
(lp270
I1
aI2
aI1
aI1
aI2
aI1
asI21
(lp271
I1
aI1
aI2
aI1
aI0
aI1
asI22
(lp272
I1
aI1
aI1
aI0
aI1
aI1
asI23
(lp273
I1
aI1
aI1
aI2
aI0
aI1
asI24
(lp274
I1
aI1
aI1
aI1
aI1
aI1
assI7
(dp275
I1
(lp276
I0
aI0
aI0
aI0
aI2
aI1
aI2
asI2
(lp277
I0
aI0
aI0
aI0
aI1
aI0
aI2
asI3
(lp278
I0
aI0
aI0
aI2
aI0
aI2
aI2
asI4
(lp279
I0
aI0
aI0
aI2
aI2
aI2
aI2
asI5
(lp280
I0
aI0
aI0
aI2
aI1
aI0
aI2
asI6
(lp281
I0
aI0
aI0
aI1
aI1
aI2
aI2
asI7
(lp282
I0
aI0
aI0
aI1
aI1
aI1
aI2
asI8
(lp283
I0
aI0
aI2
aI2
aI2
aI0
aI2
asI9
(lp284
I0
aI0
aI2
aI2
aI1
aI2
aI2
asI10
(lp285
I0
aI0
aI2
aI1
aI0
aI0
aI2
asI11
(lp286
I0
aI0
aI2
aI1
aI2
aI2
aI2
asI12
(lp287
I0
aI0
aI1
aI0
aI2
aI1
aI2
asI13
(lp288
I0
aI0
aI1
aI0
aI1
aI1
aI2
asI14
(lp289
I0
aI0
aI1
aI1
aI0
aI1
aI2
asI15
(lp290
I0
aI0
aI1
aI1
aI2
aI0
aI2
asI16
(lp291
I0
aI2
aI0
aI0
aI0
aI2
aI2
asI17
(lp292
I0
aI2
aI0
aI0
aI1
aI0
aI2
asI18
(lp293
I0
aI2
aI0
aI0
aI1
aI1
aI2
asI19
(lp294
I0
aI2
aI0
aI2
aI2
aI0
aI2
asI20
(lp295
I0
aI2
aI0
aI2
aI1
aI2
aI2
asI21
(lp296
I0
aI2
aI0
aI1
aI1
aI0
aI2
asI22
(lp297
I0
aI2
aI2
aI0
aI2
aI0
aI2
asI23
(lp298
I0
aI2
aI2
aI0
aI1
aI2
aI2
asI24
(lp299
I0
aI2
aI2
aI2
aI2
aI1
aI2
asI25
(lp300
I0
aI2
aI2
aI2
aI1
aI0
aI2
asI26
(lp301
I0
aI2
aI2
aI1
aI0
aI1
aI2
asI27
(lp302
I0
aI2
aI2
aI1
aI2
aI2
aI2
asssI4
(dp303
I2
(dp304
I1
(lp305
I1
aI2
assI3
(dp306
I1
(lp307
I1
aI1
aI2
assI4
(dp308
I1
(lp309
I1
aI2
aI2
aI2
asssI5
(dp310
I2
(dp311
I1
(lp312
I4
aI3
asI2
(lp313
I3
aI2
asI3
(lp314
I2
aI2
asI4
(lp315
I1
aI3
assI3
(dp316
I1
(lp317
I0
aI2
aI3
asI2
(lp318
I4
aI1
aI2
asI3
(lp319
I3
aI0
aI2
asI4
(lp320
I3
aI4
aI2
asI5
(lp321
I3
aI3
aI3
asI6
(lp322
I3
aI3
aI2
asI7
(lp323
I3
aI1
aI3
asI8
(lp324
I2
aI0
aI3
asI9
(lp325
I2
aI4
aI3
asI10
(lp326
I2
aI3
aI3
asI11
(lp327
I2
aI3
aI2
asI12
(lp328
I2
aI1
aI2
asI13
(lp329
I1
aI0
aI2
asI14
(lp330
I1
aI4
aI3
asI15
(lp331
I1
aI1
aI3
assI4
(dp332
I1
(lp333
I0
aI4
aI3
aI3
asI2
(lp334
I0
aI4
aI3
aI2
asI3
(lp335
I0
aI4
aI2
aI3
asI4
(lp336
I0
aI4
aI2
aI2
asI5
(lp337
I0
aI1
aI4
aI3
asI6
(lp338
I0
aI1
aI4
aI2
asI7
(lp339
I0
aI1
aI1
aI3
asI8
(lp340
I0
aI1
aI1
aI2
asI9
(lp341
I4
aI0
aI4
aI2
asI10
(lp342
I4
aI0
aI3
aI2
asI11
(lp343
I4
aI0
aI2
aI3
asI12
(lp344
I4
aI0
aI1
aI3
asI13
(lp345
I4
aI4
aI4
aI2
asI14
(lp346
I4
aI3
aI0
aI3
asI15
(lp347
I4
aI3
aI4
aI3
asI16
(lp348
I4
aI2
aI0
aI2
asI17
(lp349
I4
aI2
aI1
aI3
asI18
(lp350
I4
aI1
aI1
aI2
asI19
(lp351
I3
aI0
aI4
aI2
asI20
(lp352
I3
aI0
aI3
aI3
asI21
(lp353
I3
aI0
aI2
aI2
asI22
(lp354
I3
aI0
aI1
aI3
asI23
(lp355
I3
aI4
aI3
aI2
asI24
(lp356
I3
aI3
aI0
aI2
asI25
(lp357
I3
aI3
aI3
aI3
asI26
(lp358
I3
aI2
aI0
aI3
asI27
(lp359
I3
aI2
aI2
aI3
asI28
(lp360
I3
aI1
aI2
aI2
asI29
(lp361
I2
aI0
aI4
aI3
asI30
(lp362
I2
aI0
aI3
aI2
asI31
(lp363
I2
aI0
aI2
aI3
asI32
(lp364
I2
aI0
aI1
aI2
asI33
(lp365
I2
aI4
aI2
aI2
asI34
(lp366
I2
aI3
aI0
aI2
asI35
(lp367
I2
aI3
aI2
aI3
asI36
(lp368
I2
aI2
aI0
aI3
asI37
(lp369
I2
aI2
aI3
aI3
asI38
(lp370
I2
aI1
aI3
aI2
asI39
(lp371
I1
aI0
aI4
aI3
asI40
(lp372
I1
aI0
aI3
aI3
asI41
(lp373
I1
aI0
aI2
aI2
asI42
(lp374
I1
aI0
aI1
aI2
asI43
(lp375
I1
aI4
aI1
aI2
asI44
(lp376
I1
aI3
aI0
aI3
asI45
(lp377
I1
aI3
aI1
aI3
asI46
(lp378
I1
aI2
aI0
aI2
asI47
(lp379
I1
aI2
aI4
aI3
asI48
(lp380
I1
aI1
aI4
aI2
asssI7
(dp381
I2
(dp382
I1
(lp383
I1
aI4
assI3
(dp384
I1
(lp385
I0
aI1
aI5
assI4
(dp386
I1
(lp387
I0
aI1
aI1
aI4
asssI8
(dp388
I2
(dp389
I1
(lp390
I1
aI2
assI3
(dp391
I1
(lp392
I1
aI0
aI3
assI4
(dp393
I1
(lp394
I1
aI0
aI0
aI5
asssI9
(dp395
I2
(dp396
I1
(lp397
I1
aI3
assI3
(dp398
I1
(lp399
I0
aI1
aI3
assI4
(dp400
I1
(lp401
I1
aI0
aI0
aI6
asssI11
(dp402
I2
(dp403
I1
(lp404
I10
aI4
asI2
(lp405
I12
aI4
asI3
(lp406
I1
aI3
asI4
(lp407
I3
aI3
asI5
(lp408
I8
aI3
asI6
(lp409
I10
aI3
asI7
(lp410
I12
aI3
asI8
(lp411
I1
aI4
asI9
(lp412
I4
aI4
asI10
(lp413
I7
aI4
asI11
(lp414
I2
aI5
asI12
(lp415
I3
aI5
asI13
(lp416
I8
aI5
asI14
(lp417
I9
aI5
asI15
(lp418
I4
aI9
asI16
(lp419
I5
aI9
asI17
(lp420
I6
aI9
asI18
(lp421
I7
aI9
assI3
(dp422
I1
(lp423
I0
aI10
aI7
assI4
(dp424
I1
(lp425
I0
aI0
aI10
aI9
asssI13
(dp426
I2
(dp427
I1
(lp428
I12
aI11
assI3
(dp429
I1
(lp430
I0
aI12
aI7
asss.